; ModuleID = '31/308.c'
source_filename = "31/308.c"
target datalayout = "e-m:e-p270:32:32-p271:32:32-p272:64:64-i64:64-f80:128-n8:16:32:64-S128"
target triple = "x86_64-pc-linux-gnu"

%struct.student = type { [20 x i8], [20 x i8], i8, [20 x i8], [20 x i8], [20 x i8], %struct.student* }

@n = dso_local global i32 0, align 4
@.str = private unnamed_addr constant [4 x i8] c"%s \00", align 1
@.str.1 = private unnamed_addr constant [15 x i8] c"%s %c %s %s %s\00", align 1
@.str.2 = private unnamed_addr constant [3 x i8] c"%s\00", align 1
@.str.3 = private unnamed_addr constant [4 x i8] c"end\00", align 1
@.str.4 = private unnamed_addr constant [19 x i8] c"%s %s %c %s %s %s\0A\00", align 1

; Function Attrs: noinline nounwind uwtable
define dso_local %struct.student* @creat() #0 {
  %1 = alloca %struct.student*, align 8
  %2 = alloca %struct.student*, align 8
  %3 = alloca %struct.student*, align 8
  %4 = alloca %struct.student*, align 8
  %5 = call noalias i8* @malloc(i64 100) #4
  %6 = bitcast i8* %5 to %struct.student*
  store %struct.student* %6, %struct.student** %4, align 8
  store %struct.student* %6, %struct.student** %3, align 8
  store %struct.student* null, %struct.student** %2, align 8
  %7 = load %struct.student*, %struct.student** %3, align 8
  %8 = getelementptr inbounds %struct.student, %struct.student* %7, i32 0, i32 0
  %9 = getelementptr inbounds [20 x i8], [20 x i8]* %8, i64 0, i64 0
  %10 = call i32 (i8*, ...) @__isoc99_scanf(i8* getelementptr inbounds ([4 x i8], [4 x i8]* @.str, i64 0, i64 0), i8* %9)
  %11 = load %struct.student*, %struct.student** %3, align 8
  %12 = getelementptr inbounds %struct.student, %struct.student* %11, i32 0, i32 0
  %13 = getelementptr inbounds [20 x i8], [20 x i8]* %12, i64 0, i64 0
  %14 = load i8, i8* %13, align 8
  %15 = sext i8 %14 to i32
  %16 = icmp eq i32 %15, 101
  br i1 %16, label %17, label %19

17:                                               ; preds = %0
  %18 = load %struct.student*, %struct.student** %2, align 8
  store %struct.student* %18, %struct.student** %1, align 8
  br label %79

19:                                               ; preds = %0
  %20 = load %struct.student*, %struct.student** %3, align 8
  %21 = getelementptr inbounds %struct.student, %struct.student* %20, i32 0, i32 1
  %22 = getelementptr inbounds [20 x i8], [20 x i8]* %21, i64 0, i64 0
  %23 = load %struct.student*, %struct.student** %3, align 8
  %24 = getelementptr inbounds %struct.student, %struct.student* %23, i32 0, i32 2
  %25 = load %struct.student*, %struct.student** %3, align 8
  %26 = getelementptr inbounds %struct.student, %struct.student* %25, i32 0, i32 3
  %27 = getelementptr inbounds [20 x i8], [20 x i8]* %26, i64 0, i64 0
  %28 = load %struct.student*, %struct.student** %3, align 8
  %29 = getelementptr inbounds %struct.student, %struct.student* %28, i32 0, i32 4
  %30 = getelementptr inbounds [20 x i8], [20 x i8]* %29, i64 0, i64 0
  %31 = load %struct.student*, %struct.student** %3, align 8
  %32 = getelementptr inbounds %struct.student, %struct.student* %31, i32 0, i32 5
  %33 = getelementptr inbounds [20 x i8], [20 x i8]* %32, i64 0, i64 0
  %34 = call i32 (i8*, ...) @__isoc99_scanf(i8* getelementptr inbounds ([15 x i8], [15 x i8]* @.str.1, i64 0, i64 0), i8* %22, i8* %24, i8* %27, i8* %30, i8* %33)
  %35 = load %struct.student*, %struct.student** %3, align 8
  %36 = getelementptr inbounds %struct.student, %struct.student* %35, i32 0, i32 6
  store %struct.student* null, %struct.student** %36, align 8
  br label %37

37:                                               ; preds = %61, %19
  %38 = load i32, i32* @n, align 4
  %39 = add nsw i32 %38, 1
  store i32 %39, i32* @n, align 4
  %40 = load %struct.student*, %struct.student** %3, align 8
  store %struct.student* %40, %struct.student** %2, align 8
  %41 = load i32, i32* @n, align 4
  %42 = icmp sgt i32 %41, 1
  br i1 %42, label %43, label %47

43:                                               ; preds = %37
  %44 = load %struct.student*, %struct.student** %4, align 8
  %45 = load %struct.student*, %struct.student** %3, align 8
  %46 = getelementptr inbounds %struct.student, %struct.student* %45, i32 0, i32 6
  store %struct.student* %44, %struct.student** %46, align 8
  br label %47

47:                                               ; preds = %43, %37
  %48 = load %struct.student*, %struct.student** %3, align 8
  store %struct.student* %48, %struct.student** %4, align 8
  %49 = call noalias i8* @malloc(i64 100) #4
  %50 = bitcast i8* %49 to %struct.student*
  store %struct.student* %50, %struct.student** %3, align 8
  %51 = load %struct.student*, %struct.student** %3, align 8
  %52 = getelementptr inbounds %struct.student, %struct.student* %51, i32 0, i32 0
  %53 = getelementptr inbounds [20 x i8], [20 x i8]* %52, i64 0, i64 0
  %54 = call i32 (i8*, ...) @__isoc99_scanf(i8* getelementptr inbounds ([3 x i8], [3 x i8]* @.str.2, i64 0, i64 0), i8* %53)
  %55 = load %struct.student*, %struct.student** %3, align 8
  %56 = getelementptr inbounds %struct.student, %struct.student* %55, i32 0, i32 0
  %57 = getelementptr inbounds [20 x i8], [20 x i8]* %56, i64 0, i64 0
  %58 = call i32 @strcmp(i8* %57, i8* getelementptr inbounds ([4 x i8], [4 x i8]* @.str.3, i64 0, i64 0)) #5
  %59 = icmp eq i32 %58, 0
  br i1 %59, label %60, label %61

60:                                               ; preds = %47
  store %struct.student* null, %struct.student** %3, align 8
  br label %77

61:                                               ; preds = %47
  %62 = load %struct.student*, %struct.student** %3, align 8
  %63 = getelementptr inbounds %struct.student, %struct.student* %62, i32 0, i32 1
  %64 = getelementptr inbounds [20 x i8], [20 x i8]* %63, i64 0, i64 0
  %65 = load %struct.student*, %struct.student** %3, align 8
  %66 = getelementptr inbounds %struct.student, %struct.student* %65, i32 0, i32 2
  %67 = load %struct.student*, %struct.student** %3, align 8
  %68 = getelementptr inbounds %struct.student, %struct.student* %67, i32 0, i32 3
  %69 = getelementptr inbounds [20 x i8], [20 x i8]* %68, i64 0, i64 0
  %70 = load %struct.student*, %struct.student** %3, align 8
  %71 = getelementptr inbounds %struct.student, %struct.student* %70, i32 0, i32 4
  %72 = getelementptr inbounds [20 x i8], [20 x i8]* %71, i64 0, i64 0
  %73 = load %struct.student*, %struct.student** %3, align 8
  %74 = getelementptr inbounds %struct.student, %struct.student* %73, i32 0, i32 5
  %75 = getelementptr inbounds [20 x i8], [20 x i8]* %74, i64 0, i64 0
  %76 = call i32 (i8*, ...) @__isoc99_scanf(i8* getelementptr inbounds ([15 x i8], [15 x i8]* @.str.1, i64 0, i64 0), i8* %64, i8* %66, i8* %69, i8* %72, i8* %75)
  br label %37

77:                                               ; preds = %60
  %78 = load %struct.student*, %struct.student** %2, align 8
  store %struct.student* %78, %struct.student** %1, align 8
  br label %79

79:                                               ; preds = %77, %17
  %80 = load %struct.student*, %struct.student** %1, align 8
  ret %struct.student* %80
}

; Function Attrs: nounwind
declare dso_local noalias i8* @malloc(i64) #1

declare dso_local i32 @__isoc99_scanf(i8*, ...) #2

; Function Attrs: nounwind readonly
declare dso_local i32 @strcmp(i8*, i8*) #3

; Function Attrs: noinline nounwind uwtable
define dso_local void @print(%struct.student* %0) #0 {
  %2 = alloca %struct.student*, align 8
  %3 = alloca %struct.student*, align 8
  store %struct.student* %0, %struct.student** %2, align 8
  %4 = load %struct.student*, %struct.student** %2, align 8
  store %struct.student* %4, %struct.student** %3, align 8
  %5 = load %struct.student*, %struct.student** %2, align 8
  %6 = icmp ne %struct.student* %5, null
  br i1 %6, label %7, label %36

7:                                                ; preds = %1
  br label %8

8:                                                ; preds = %32, %7
  %9 = load %struct.student*, %struct.student** %3, align 8
  %10 = getelementptr inbounds %struct.student, %struct.student* %9, i32 0, i32 0
  %11 = getelementptr inbounds [20 x i8], [20 x i8]* %10, i64 0, i64 0
  %12 = load %struct.student*, %struct.student** %3, align 8
  %13 = getelementptr inbounds %struct.student, %struct.student* %12, i32 0, i32 1
  %14 = getelementptr inbounds [20 x i8], [20 x i8]* %13, i64 0, i64 0
  %15 = load %struct.student*, %struct.student** %3, align 8
  %16 = getelementptr inbounds %struct.student, %struct.student* %15, i32 0, i32 2
  %17 = load i8, i8* %16, align 8
  %18 = sext i8 %17 to i32
  %19 = load %struct.student*, %struct.student** %3, align 8
  %20 = getelementptr inbounds %struct.student, %struct.student* %19, i32 0, i32 3
  %21 = getelementptr inbounds [20 x i8], [20 x i8]* %20, i64 0, i64 0
  %22 = load %struct.student*, %struct.student** %3, align 8
  %23 = getelementptr inbounds %struct.student, %struct.student* %22, i32 0, i32 4
  %24 = getelementptr inbounds [20 x i8], [20 x i8]* %23, i64 0, i64 0
  %25 = load %struct.student*, %struct.student** %3, align 8
  %26 = getelementptr inbounds %struct.student, %struct.student* %25, i32 0, i32 5
  %27 = getelementptr inbounds [20 x i8], [20 x i8]* %26, i64 0, i64 0
  %28 = call i32 (i8*, ...) @printf(i8* getelementptr inbounds ([19 x i8], [19 x i8]* @.str.4, i64 0, i64 0), i8* %11, i8* %14, i32 %18, i8* %21, i8* %24, i8* %27)
  %29 = load %struct.student*, %struct.student** %3, align 8
  %30 = getelementptr inbounds %struct.student, %struct.student* %29, i32 0, i32 6
  %31 = load %struct.student*, %struct.student** %30, align 8
  store %struct.student* %31, %struct.student** %3, align 8
  br label %32

32:                                               ; preds = %8
  %33 = load %struct.student*, %struct.student** %3, align 8
  %34 = icmp ne %struct.student* %33, null
  br i1 %34, label %8, label %35

35:                                               ; preds = %32
  br label %36

36:                                               ; preds = %35, %1
  ret void
}

declare dso_local i32 @printf(i8*, ...) #2

; Function Attrs: noinline nounwind uwtable
define dso_local void @main() #0 {
  %1 = alloca %struct.student*, align 8
  %2 = call %struct.student* @creat()
  store %struct.student* %2, %struct.student** %1, align 8
  %3 = load %struct.student*, %struct.student** %1, align 8
  call void @print(%struct.student* %3)
  ret void
}


!llvm.module.flags = !{!0}
!llvm.ident = !{!1}

!0 = !{i32 1, !"wchar_size", i32 4}
!1 = !{!"clang version 10.0.0-4ubuntu1 "}
