; ModuleID = 'source-C-CXX/30/308.c'
source_filename = "source-C-CXX/30/308.c"
target datalayout = "e-m:e-p270:32:32-p271:32:32-p272:64:64-i64:64-f80:128-n8:16:32:64-S128"
target triple = "x86_64-pc-linux-gnu"

%struct.student = type { [20 x i8], [20 x i8], i8, [20 x i8], [20 x i8], [20 x i8], %struct.student* }

@n = dso_local local_unnamed_addr global i32 0, align 4
@.str = private unnamed_addr constant [4 x i8] c"%s \00", align 1
@.str.1 = private unnamed_addr constant [15 x i8] c"%s %c %s %s %s\00", align 1
@.str.2 = private unnamed_addr constant [3 x i8] c"%s\00", align 1
@.str.3 = private unnamed_addr constant [4 x i8] c"end\00", align 1
@.str.4 = private unnamed_addr constant [19 x i8] c"%s %s %c %s %s %s\0A\00", align 1

; Function Attrs: nofree nounwind sspstrong uwtable
define dso_local %struct.student* @creat() local_unnamed_addr #0 {
  %1 = tail call noalias align 16 dereferenceable_or_null(100) i8* @malloc(i64 100) #4
  %2 = bitcast i8* %1 to %struct.student*
  %3 = getelementptr inbounds %struct.student, %struct.student* %2, i64 0, i32 0, i64 0
  %4 = tail call i32 (i8*, ...) @__isoc99_scanf(i8* getelementptr inbounds ([4 x i8], [4 x i8]* @.str, i64 0, i64 0), i8* %3)
  %5 = load i8, i8* %3, align 16, !tbaa !5
  %6 = icmp eq i8 %5, 101
  br i1 %6, label %37, label %7

7:                                                ; preds = %0
  %8 = getelementptr inbounds %struct.student, %struct.student* %2, i64 0, i32 1, i64 0
  %9 = getelementptr inbounds %struct.student, %struct.student* %2, i64 0, i32 2
  %10 = getelementptr inbounds %struct.student, %struct.student* %2, i64 0, i32 3, i64 0
  %11 = getelementptr inbounds %struct.student, %struct.student* %2, i64 0, i32 4, i64 0
  %12 = getelementptr inbounds %struct.student, %struct.student* %2, i64 0, i32 5, i64 0
  %13 = tail call i32 (i8*, ...) @__isoc99_scanf(i8* getelementptr inbounds ([15 x i8], [15 x i8]* @.str.1, i64 0, i64 0), i8* nonnull %8, i8* nonnull %9, i8* nonnull %10, i8* nonnull %11, i8* nonnull %12)
  %14 = getelementptr inbounds %struct.student, %struct.student* %2, i64 0, i32 6
  store %struct.student* null, %struct.student** %14, align 8, !tbaa !8
  br label %15

15:                                               ; preds = %30, %7
  %16 = phi %struct.student* [ %2, %7 ], [ %25, %30 ]
  %17 = phi %struct.student* [ %2, %7 ], [ %16, %30 ]
  %18 = load i32, i32* @n, align 4, !tbaa !11
  %19 = add nsw i32 %18, 1
  store i32 %19, i32* @n, align 4, !tbaa !11
  %20 = icmp sgt i32 %18, 0
  br i1 %20, label %21, label %23

21:                                               ; preds = %15
  %22 = getelementptr inbounds %struct.student, %struct.student* %16, i64 0, i32 6
  store %struct.student* %17, %struct.student** %22, align 8, !tbaa !8
  br label %23

23:                                               ; preds = %21, %15
  %24 = tail call noalias align 16 dereferenceable_or_null(100) i8* @malloc(i64 100) #4
  %25 = bitcast i8* %24 to %struct.student*
  %26 = getelementptr inbounds %struct.student, %struct.student* %25, i64 0, i32 0, i64 0
  %27 = tail call i32 (i8*, ...) @__isoc99_scanf(i8* getelementptr inbounds ([3 x i8], [3 x i8]* @.str.2, i64 0, i64 0), i8* %26)
  %28 = tail call i32 @strcmp(i8* noundef nonnull dereferenceable(1) %26, i8* noundef nonnull dereferenceable(4) getelementptr inbounds ([4 x i8], [4 x i8]* @.str.3, i64 0, i64 0)) #5
  %29 = icmp eq i32 %28, 0
  br i1 %29, label %37, label %30

30:                                               ; preds = %23
  %31 = getelementptr inbounds %struct.student, %struct.student* %25, i64 0, i32 1, i64 0
  %32 = getelementptr inbounds %struct.student, %struct.student* %25, i64 0, i32 2
  %33 = getelementptr inbounds %struct.student, %struct.student* %25, i64 0, i32 3, i64 0
  %34 = getelementptr inbounds %struct.student, %struct.student* %25, i64 0, i32 4, i64 0
  %35 = getelementptr inbounds %struct.student, %struct.student* %25, i64 0, i32 5, i64 0
  %36 = tail call i32 (i8*, ...) @__isoc99_scanf(i8* getelementptr inbounds ([15 x i8], [15 x i8]* @.str.1, i64 0, i64 0), i8* nonnull %31, i8* nonnull %32, i8* nonnull %33, i8* nonnull %34, i8* nonnull %35)
  br label %15

37:                                               ; preds = %23, %0
  %38 = phi %struct.student* [ null, %0 ], [ %16, %23 ]
  ret %struct.student* %38
}

; Function Attrs: inaccessiblememonly mustprogress nofree nounwind willreturn
declare noalias noundef align 16 i8* @malloc(i64 noundef) local_unnamed_addr #1

; Function Attrs: nofree nounwind
declare noundef i32 @__isoc99_scanf(i8* nocapture noundef readonly, ...) local_unnamed_addr #2

; Function Attrs: argmemonly mustprogress nofree nounwind readonly willreturn
declare i32 @strcmp(i8* nocapture, i8* nocapture) local_unnamed_addr #3

; Function Attrs: nofree nounwind sspstrong uwtable
define dso_local void @print(%struct.student* %0) local_unnamed_addr #0 {
  %2 = icmp eq %struct.student* %0, null
  br i1 %2, label %17, label %3

3:                                                ; preds = %1, %3
  %4 = phi %struct.student* [ %15, %3 ], [ %0, %1 ]
  %5 = getelementptr inbounds %struct.student, %struct.student* %4, i64 0, i32 0, i64 0
  %6 = getelementptr inbounds %struct.student, %struct.student* %4, i64 0, i32 1, i64 0
  %7 = getelementptr inbounds %struct.student, %struct.student* %4, i64 0, i32 2
  %8 = load i8, i8* %7, align 8, !tbaa !13
  %9 = sext i8 %8 to i32
  %10 = getelementptr inbounds %struct.student, %struct.student* %4, i64 0, i32 3, i64 0
  %11 = getelementptr inbounds %struct.student, %struct.student* %4, i64 0, i32 4, i64 0
  %12 = getelementptr inbounds %struct.student, %struct.student* %4, i64 0, i32 5, i64 0
  %13 = tail call i32 (i8*, ...) @printf(i8* nonnull dereferenceable(1) getelementptr inbounds ([19 x i8], [19 x i8]* @.str.4, i64 0, i64 0), i8* %5, i8* nonnull %6, i32 %9, i8* nonnull %10, i8* nonnull %11, i8* nonnull %12)
  %14 = getelementptr inbounds %struct.student, %struct.student* %4, i64 0, i32 6
  %15 = load %struct.student*, %struct.student** %14, align 8, !tbaa !8
  %16 = icmp eq %struct.student* %15, null
  br i1 %16, label %17, label %3, !llvm.loop !14

17:                                               ; preds = %3, %1
  ret void
}

; Function Attrs: nofree nounwind
declare noundef i32 @printf(i8* nocapture noundef readonly, ...) local_unnamed_addr #2

; Function Attrs: nofree nounwind sspstrong uwtable
define dso_local void @main() local_unnamed_addr #0 {
  %1 = tail call %struct.student* @creat()
  %2 = icmp eq %struct.student* %1, null
  br i1 %2, label %17, label %3

3:                                                ; preds = %0, %3
  %4 = phi %struct.student* [ %15, %3 ], [ %1, %0 ]
  %5 = getelementptr inbounds %struct.student, %struct.student* %4, i64 0, i32 0, i64 0
  %6 = getelementptr inbounds %struct.student, %struct.student* %4, i64 0, i32 1, i64 0
  %7 = getelementptr inbounds %struct.student, %struct.student* %4, i64 0, i32 2
  %8 = load i8, i8* %7, align 8, !tbaa !13
  %9 = sext i8 %8 to i32
  %10 = getelementptr inbounds %struct.student, %struct.student* %4, i64 0, i32 3, i64 0
  %11 = getelementptr inbounds %struct.student, %struct.student* %4, i64 0, i32 4, i64 0
  %12 = getelementptr inbounds %struct.student, %struct.student* %4, i64 0, i32 5, i64 0
  %13 = tail call i32 (i8*, ...) @printf(i8* nonnull dereferenceable(1) getelementptr inbounds ([19 x i8], [19 x i8]* @.str.4, i64 0, i64 0), i8* %5, i8* nonnull %6, i32 %9, i8* nonnull %10, i8* nonnull %11, i8* nonnull %12) #4
  %14 = getelementptr inbounds %struct.student, %struct.student* %4, i64 0, i32 6
  %15 = load %struct.student*, %struct.student** %14, align 8, !tbaa !8
  %16 = icmp eq %struct.student* %15, null
  br i1 %16, label %17, label %3, !llvm.loop !14

17:                                               ; preds = %3, %0
  ret void
}


!llvm.module.flags = !{!0, !1, !2, !3}
!llvm.ident = !{!4}

!0 = !{i32 1, !"wchar_size", i32 4}
!1 = !{i32 7, !"PIC Level", i32 2}
!2 = !{i32 7, !"PIE Level", i32 2}
!3 = !{i32 7, !"uwtable", i32 1}
!4 = !{!"clang version 13.0.0"}
!5 = !{!6, !6, i64 0}
!6 = !{!"omnipotent char", !7, i64 0}
!7 = !{!"Simple C/C++ TBAA"}
!8 = !{!9, !10, i64 104}
!9 = !{!"student", !6, i64 0, !6, i64 20, !6, i64 40, !6, i64 41, !6, i64 61, !6, i64 81, !10, i64 104}
!10 = !{!"any pointer", !6, i64 0}
!11 = !{!12, !12, i64 0}
!12 = !{!"int", !6, i64 0}
!13 = !{!9, !6, i64 40}
!14 = distinct !{!14, !15}
!15 = !{!"llvm.loop.mustprogress"}
